; Function Attrs: mustprogress nounwind uwtable
define internal void @_ZN5clang4ento5check15PostObjCMessage17_checkObjCMessageIN12_GLOBAL__N_118ObjCDeallocCheckerEEEvPvRKNS0_14ObjCMethodCallERNS0_14CheckerContextE(ptr noundef %0, ptr noundef nonnull align 8 dereferenceable(72) %1, ptr noundef nonnull align 8 dereferenceable(81) %2) #0 align 2 {
  %4 = load ptr, ptr %1, align 8
  %5 = getelementptr inbounds i8, ptr %4, i64 64
  %6 = load ptr, ptr %5, align 8
  %7 = tail call noundef ptr %6(ptr noundef nonnull align 8 dereferenceable(72) %1) #18
  %8 = getelementptr inbounds nuw i8, ptr %7, i64 24
  %9 = load i32, ptr %8, align 8
  %10 = and i32 %9, 16711680
  %.not.i.i = icmp eq i32 %10, 196608
  br i1 %.not.i.i, label %_ZNK12_GLOBAL__N_118ObjCDeallocChecker21isSuperDeallocMessageERKN5clang4ento14ObjCMethodCallE.exit.i, label %_ZNK12_GLOBAL__N_118ObjCDeallocChecker20checkPostObjCMessageERKN5clang4ento14ObjCMethodCallERNS2_14CheckerContextE.exit

_ZNK12_GLOBAL__N_118ObjCDeallocChecker21isSuperDeallocMessageERKN5clang4ento14ObjCMethodCallE.exit.i: ; preds = %3
  %11 = load ptr, ptr %1, align 8
  %12 = getelementptr inbounds i8, ptr %11, i64 64
  %13 = load ptr, ptr %12, align 8
  %14 = tail call noundef ptr %13(ptr noundef nonnull align 8 dereferenceable(72) %1) #18
  %15 = tail call i64 @_ZNK5clang15ObjCMessageExpr11getSelectorEv(ptr noundef nonnull align 8 dereferenceable(40) %14) #18
  %16 = getelementptr inbounds nuw i8, ptr %0, i64 72
  %.sroa.0.0.copyload.i.i = load i64, ptr %16, align 8
  %17 = inttoptr i64 %15 to ptr
  %18 = inttoptr i64 %.sroa.0.0.copyload.i.i to ptr
  %19 = icmp eq ptr %17, %18
  br i1 %19, label %20, label %_ZNK12_GLOBAL__N_118ObjCDeallocChecker20checkPostObjCMessageERKN5clang4ento14ObjCMethodCallERNS2_14CheckerContextE.exit

20:                                               ; preds = %_ZNK12_GLOBAL__N_118ObjCDeallocChecker21isSuperDeallocMessageERKN5clang4ento14ObjCMethodCallE.exit.i
  tail call fastcc void @_ZNK12_GLOBAL__N_118ObjCDeallocChecker23diagnoseMissingReleasesERN5clang4ento14CheckerContextE(ptr noundef nonnull align 8 dereferenceable(400) %0, ptr noundef nonnull align 8 dereferenceable(81) %2)
  br label %_ZNK12_GLOBAL__N_118ObjCDeallocChecker20checkPostObjCMessageERKN5clang4ento14ObjCMethodCallERNS2_14CheckerContextE.exit

_ZNK12_GLOBAL__N_118ObjCDeallocChecker20checkPostObjCMessageERKN5clang4ento14ObjCMethodCallERNS2_14CheckerContextE.exit: ; preds = %3, %_ZNK12_GLOBAL__N_118ObjCDeallocChecker21isSuperDeallocMessageERKN5clang4ento14ObjCMethodCallE.exit.i, %20
  ret void
}